target datalayout = "e-m:e-p270:32:32-p271:32:32-p272:64:64-i64:64-i128:128-f80:128-n8:16:32:64-S128"
target triple = "x86_64-unknown-linux-gnu"

%struct.ecc_set_type = type { i32, i32, ptr, ptr, ptr, ptr, ptr, ptr, ptr, ptr, i32, i32, i32 }
%struct.ecc_point = type { [1 x %struct.sp_int], [1 x %struct.sp_int], [1 x %struct.sp_int] }
%struct.sp_int = type { i32, i32, [129 x i64] }

; Function Attrs: nounwind uwtable
define i32 @wc_ecc_is_valid_idx(i32 noundef %n) #0 {
entry:
  %retval = alloca i32, align 4
  %n.addr = alloca i32, align 4
  %x = alloca i32, align 4
  store i32 %n, ptr %n.addr, align 4
  %0 = load i32, ptr %n.addr, align 4
  %cmp = icmp sge i32 %0, 6
  br i1 %cmp, label %if.then, label %if.end

if.then:                                          ; preds = %entry
  store i32 0, ptr %retval, align 4
  br label %return

if.end:                                           ; preds = %entry
  store i32 0, ptr %x, align 4
  br label %for.cond

for.cond:                                         ; preds = %for.inc, %if.end
  %1 = load i32, ptr %x, align 4
  %idxprom = sext i32 %1 to i64
  %arrayidx = getelementptr inbounds [6 x %struct.ecc_set_type], ptr @ecc_sets, i64 0, i64 %idxprom
  %size = getelementptr inbounds %struct.ecc_set_type, ptr %arrayidx, i32 0, i32 0
  %2 = load i32, ptr %size, align 8
  %cmp1 = icmp ne i32 %2, 0
  br i1 %cmp1, label %for.body, label %for.end

for.body:                                         ; preds = %for.cond
  br label %for.inc

for.inc:                                          ; preds = %for.body
  %3 = load i32, ptr %x, align 4
  %inc = add nsw i32 %3, 1
  store i32 %inc, ptr %x, align 4
  br label %for.cond, !llvm.loop !12

for.end:                                          ; preds = %for.cond
  %4 = load i32, ptr %n.addr, align 4
  %cmp2 = icmp sge i32 %4, -1
  br i1 %cmp2, label %land.lhs.true, label %if.end5

land.lhs.true:                                    ; preds = %for.end
  %5 = load i32, ptr %n.addr, align 4
  %6 = load i32, ptr %x, align 4
  %cmp3 = icmp slt i32 %5, %6
  br i1 %cmp3, label %if.then4, label %if.end5

if.then4:                                         ; preds = %land.lhs.true
  store i32 1, ptr %retval, align 4
  br label %return

if.end5:                                          ; preds = %land.lhs.true, %for.end
  store i32 0, ptr %retval, align 4
  br label %return

return:                                           ; preds = %if.end5, %if.then4, %if.then
  %7 = load i32, ptr %retval, align 4
  ret i32 %7
}

; Function Attrs: nounwind uwtable
define i32 @wc_ecc_import_point_der_ex(ptr noundef %in, i32 noundef %inLen, i32 noundef %curve_idx, ptr noundef %point, i32 noundef %shortKeySize) #0 {
entry:
  %retval = alloca i32, align 4
  %in.addr = alloca ptr, align 8
  %inLen.addr = alloca i32, align 4
  %curve_idx.addr = alloca i32, align 4
  %point.addr = alloca ptr, align 8
  %shortKeySize.addr = alloca i32, align 4
  %err = alloca i32, align 4
  %keysize = alloca i32, align 4
  %pointType = alloca i8, align 1
  store ptr %in, ptr %in.addr, align 8
  store i32 %inLen, ptr %inLen.addr, align 4
  store i32 %curve_idx, ptr %curve_idx.addr, align 4
  store ptr %point, ptr %point.addr, align 8
  store i32 %shortKeySize, ptr %shortKeySize.addr, align 4
  store i32 0, ptr %err, align 4
  %0 = load ptr, ptr %in.addr, align 8
  %cmp = icmp eq ptr %0, null
  br i1 %cmp, label %if.then, label %lor.lhs.false

lor.lhs.false:                                    ; preds = %entry
  %1 = load ptr, ptr %point.addr, align 8
  %cmp1 = icmp eq ptr %1, null
  br i1 %cmp1, label %if.then, label %lor.lhs.false2

lor.lhs.false2:                                   ; preds = %lor.lhs.false
  %2 = load i32, ptr %curve_idx.addr, align 4
  %cmp3 = icmp slt i32 %2, 0
  br i1 %cmp3, label %if.then, label %lor.lhs.false4

lor.lhs.false4:                                   ; preds = %lor.lhs.false2
  %3 = load i32, ptr %curve_idx.addr, align 4
  %call = call i32 @wc_ecc_is_valid_idx(i32 noundef %3)
  %cmp5 = icmp eq i32 %call, 0
  br i1 %cmp5, label %if.then, label %if.end

if.then:                                          ; preds = %lor.lhs.false4, %lor.lhs.false2, %lor.lhs.false, %entry
  store i32 -170, ptr %retval, align 4
  br label %return

if.end:                                           ; preds = %lor.lhs.false4
  %4 = load i32, ptr %inLen.addr, align 4
  %and = and i32 %4, 1
  %cmp6 = icmp eq i32 %and, 0
  br i1 %cmp6, label %if.then7, label %if.end8

if.then7:                                         ; preds = %if.end
  store i32 -170, ptr %retval, align 4
  br label %return

if.end8:                                          ; preds = %if.end
  %5 = load ptr, ptr %point.addr, align 8
  %x = getelementptr inbounds %struct.ecc_point, ptr %5, i32 0, i32 0
  %arraydecay = getelementptr inbounds [1 x %struct.sp_int], ptr %x, i64 0, i64 0
  call void @sp_clear(ptr noundef %arraydecay)
  %6 = load ptr, ptr %point.addr, align 8
  %y = getelementptr inbounds %struct.ecc_point, ptr %6, i32 0, i32 1
  %arraydecay9 = getelementptr inbounds [1 x %struct.sp_int], ptr %y, i64 0, i64 0
  call void @sp_clear(ptr noundef %arraydecay9)
  %7 = load ptr, ptr %point.addr, align 8
  %z = getelementptr inbounds %struct.ecc_point, ptr %7, i32 0, i32 2
  %arraydecay10 = getelementptr inbounds [1 x %struct.sp_int], ptr %z, i64 0, i64 0
  call void @sp_clear(ptr noundef %arraydecay10)
  %8 = load ptr, ptr %point.addr, align 8
  %x11 = getelementptr inbounds %struct.ecc_point, ptr %8, i32 0, i32 0
  %arraydecay12 = getelementptr inbounds [1 x %struct.sp_int], ptr %x11, i64 0, i64 0
  %9 = load ptr, ptr %point.addr, align 8
  %y13 = getelementptr inbounds %struct.ecc_point, ptr %9, i32 0, i32 1
  %arraydecay14 = getelementptr inbounds [1 x %struct.sp_int], ptr %y13, i64 0, i64 0
  %10 = load ptr, ptr %point.addr, align 8
  %z15 = getelementptr inbounds %struct.ecc_point, ptr %10, i32 0, i32 2
  %arraydecay16 = getelementptr inbounds [1 x %struct.sp_int], ptr %z15, i64 0, i64 0
  %call17 = call i32 @sp_init_multi(ptr noundef %arraydecay12, ptr noundef %arraydecay14, ptr noundef %arraydecay16, ptr noundef null, ptr noundef null, ptr noundef null)
  store i32 %call17, ptr %err, align 4
  %11 = load i32, ptr %err, align 4
  %cmp18 = icmp ne i32 %11, 0
  br i1 %cmp18, label %if.then19, label %if.end20

if.then19:                                        ; preds = %if.end8
  store i32 -125, ptr %retval, align 4
  br label %return

if.end20:                                         ; preds = %if.end8
  br label %do.body

do.body:                                          ; preds = %if.end20
  br label %do.end

do.end:                                           ; preds = %do.body
  %12 = load ptr, ptr %in.addr, align 8
  %arrayidx = getelementptr inbounds i8, ptr %12, i64 0
  %13 = load i8, ptr %arrayidx, align 1
  store i8 %13, ptr %pointType, align 1
  %14 = load i8, ptr %pointType, align 1
  %conv = zext i8 %14 to i32
  %cmp21 = icmp ne i32 %conv, 4
  br i1 %cmp21, label %land.lhs.true, label %if.end31

land.lhs.true:                                    ; preds = %do.end
  %15 = load i8, ptr %pointType, align 1
  %conv23 = zext i8 %15 to i32
  %cmp24 = icmp ne i32 %conv23, 2
  br i1 %cmp24, label %land.lhs.true26, label %if.end31

land.lhs.true26:                                  ; preds = %land.lhs.true
  %16 = load i8, ptr %pointType, align 1
  %conv27 = zext i8 %16 to i32
  %cmp28 = icmp ne i32 %conv27, 3
  br i1 %cmp28, label %if.then30, label %if.end31

if.then30:                                        ; preds = %land.lhs.true26
  store i32 -140, ptr %err, align 4
  br label %if.end31

if.end31:                                         ; preds = %if.then30, %land.lhs.true26, %land.lhs.true, %do.end
  %17 = load i8, ptr %pointType, align 1
  %conv32 = zext i8 %17 to i32
  %cmp33 = icmp eq i32 %conv32, 2
  br i1 %cmp33, label %if.then39, label %lor.lhs.false35

lor.lhs.false35:                                  ; preds = %if.end31
  %18 = load i8, ptr %pointType, align 1
  %conv36 = zext i8 %18 to i32
  %cmp37 = icmp eq i32 %conv36, 3
  br i1 %cmp37, label %if.then39, label %if.end40

if.then39:                                        ; preds = %lor.lhs.false35, %if.end31
  store i32 -174, ptr %err, align 4
  br label %if.end40

if.end40:                                         ; preds = %if.then39, %lor.lhs.false35
  %19 = load i32, ptr %inLen.addr, align 4
  %sub = sub i32 %19, 1
  store i32 %sub, ptr %inLen.addr, align 4
  %20 = load ptr, ptr %in.addr, align 8
  %add.ptr = getelementptr inbounds i8, ptr %20, i64 1
  store ptr %add.ptr, ptr %in.addr, align 8
  %21 = load i32, ptr %inLen.addr, align 4
  %shr = lshr i32 %21, 1
  store i32 %shr, ptr %keysize, align 4
  %22 = load i32, ptr %err, align 4
  %cmp41 = icmp eq i32 %22, 0
  br i1 %cmp41, label %if.then43, label %if.end47

if.then43:                                        ; preds = %if.end40
  %23 = load ptr, ptr %point.addr, align 8
  %x44 = getelementptr inbounds %struct.ecc_point, ptr %23, i32 0, i32 0
  %arraydecay45 = getelementptr inbounds [1 x %struct.sp_int], ptr %x44, i64 0, i64 0
  %24 = load ptr, ptr %in.addr, align 8
  %25 = load i32, ptr %keysize, align 4
  %call46 = call i32 @sp_read_unsigned_bin(ptr noundef %arraydecay45, ptr noundef %24, i32 noundef %25)
  store i32 %call46, ptr %err, align 4
  br label %if.end47

if.end47:                                         ; preds = %if.then43, %if.end40
  %26 = load i32, ptr %err, align 4
  %cmp48 = icmp eq i32 %26, 0
  br i1 %cmp48, label %if.then50, label %if.end55

if.then50:                                        ; preds = %if.end47
  %27 = load ptr, ptr %point.addr, align 8
  %y51 = getelementptr inbounds %struct.ecc_point, ptr %27, i32 0, i32 1
  %arraydecay52 = getelementptr inbounds [1 x %struct.sp_int], ptr %y51, i64 0, i64 0
  %28 = load ptr, ptr %in.addr, align 8
  %29 = load i32, ptr %keysize, align 4
  %idx.ext = sext i32 %29 to i64
  %add.ptr53 = getelementptr inbounds i8, ptr %28, i64 %idx.ext
  %30 = load i32, ptr %keysize, align 4
  %call54 = call i32 @sp_read_unsigned_bin(ptr noundef %arraydecay52, ptr noundef %add.ptr53, i32 noundef %30)
  store i32 %call54, ptr %err, align 4
  br label %if.end55

if.end55:                                         ; preds = %if.then50, %if.end47
  %31 = load i32, ptr %err, align 4
  %cmp56 = icmp eq i32 %31, 0
  br i1 %cmp56, label %if.then58, label %if.end62

if.then58:                                        ; preds = %if.end55
  %32 = load ptr, ptr %point.addr, align 8
  %z59 = getelementptr inbounds %struct.ecc_point, ptr %32, i32 0, i32 2
  %arraydecay60 = getelementptr inbounds [1 x %struct.sp_int], ptr %z59, i64 0, i64 0
  %call61 = call i32 @sp_set(ptr noundef %arraydecay60, i64 noundef 1)
  store i32 %call61, ptr %err, align 4
  br label %if.end62

if.end62:                                         ; preds = %if.then58, %if.end55
  %33 = load i32, ptr %err, align 4
  %cmp63 = icmp ne i32 %33, 0
  br i1 %cmp63, label %if.then65, label %if.end72

if.then65:                                        ; preds = %if.end62
  %34 = load ptr, ptr %point.addr, align 8
  %x66 = getelementptr inbounds %struct.ecc_point, ptr %34, i32 0, i32 0
  %arraydecay67 = getelementptr inbounds [1 x %struct.sp_int], ptr %x66, i64 0, i64 0
  call void @sp_clear(ptr noundef %arraydecay67)
  %35 = load ptr, ptr %point.addr, align 8
  %y68 = getelementptr inbounds %struct.ecc_point, ptr %35, i32 0, i32 1
  %arraydecay69 = getelementptr inbounds [1 x %struct.sp_int], ptr %y68, i64 0, i64 0
  call void @sp_clear(ptr noundef %arraydecay69)
  %36 = load ptr, ptr %point.addr, align 8
  %z70 = getelementptr inbounds %struct.ecc_point, ptr %36, i32 0, i32 2
  %arraydecay71 = getelementptr inbounds [1 x %struct.sp_int], ptr %z70, i64 0, i64 0
  call void @sp_clear(ptr noundef %arraydecay71)
  br label %if.end72

if.end72:                                         ; preds = %if.then65, %if.end62
  br label %do.body73

do.body73:                                        ; preds = %if.end72
  br label %do.end74

do.end74:                                         ; preds = %do.body73
  %37 = load i32, ptr %err, align 4
  store i32 %37, ptr %retval, align 4
  br label %return

return:                                           ; preds = %do.end74, %if.then19, %if.then7, %if.then
  %38 = load i32, ptr %retval, align 4
  ret i32 %38
}