; Function Attrs: nounwind uwtable
define i32 @wc_ecc_import_point_der_ex(ptr noundef %in, i32 noundef %inLen, i32 noundef %curve_idx, ptr noundef %point, i32 %shortKeySize) local_unnamed_addr #2 {
entry:
  %cmp = icmp eq ptr %in, null
  %cmp1 = icmp eq ptr %point, null
  %or.cond = or i1 %cmp, %cmp1
  %cmp3 = icmp slt i32 %curve_idx, 0
  %or.cond1 = or i1 %cmp3, %or.cond
  br i1 %or.cond1, label %return, label %lor.lhs.false4

lor.lhs.false4:                                   ; preds = %entry
  %narrow.i = icmp samesign ugt i32 %curve_idx, 4
  %and = and i32 %inLen, 1
  %cmp6 = icmp eq i32 %and, 0
  %or.cond35 = or i1 %narrow.i, %cmp6
  br i1 %or.cond35, label %return, label %if.end8

if.end8:                                          ; preds = %lor.lhs.false4
  tail call void @sp_clear(ptr noundef nonnull %point) #19
  %y = getelementptr inbounds nuw i8, ptr %point, i64 1040
  tail call void @sp_clear(ptr noundef nonnull %y) #19
  %z = getelementptr inbounds nuw i8, ptr %point, i64 2080
  tail call void @sp_clear(ptr noundef nonnull %z) #19
  %call17 = tail call i32 @sp_init_multi(ptr noundef nonnull %point, ptr noundef nonnull %y, ptr noundef nonnull %z, ptr noundef null, ptr noundef null, ptr noundef null) #19
  %cmp18.not = icmp eq i32 %call17, 0
  br i1 %cmp18.not, label %do.end, label %return

do.end:                                           ; preds = %if.end8
  %0 = load i8, ptr %in, align 1
  %1 = add i8 %0, -5
  %or.cond3 = icmp ult i8 %1, -3
  %spec.select = select i1 %or.cond3, i32 -140, i32 0
  %2 = and i8 %0, -2
  %or.cond4 = icmp eq i8 %2, 2
  %err.1 = select i1 %or.cond4, i32 -174, i32 %spec.select
  %sub = add nsw i32 %inLen, -1
  %add.ptr = getelementptr inbounds nuw i8, ptr %in, i64 1
  %shr = lshr exact i32 %sub, 1
  %cmp41 = icmp eq i32 %err.1, 0
  br i1 %cmp41, label %if.end47, label %if.then65

if.end47:                                         ; preds = %do.end
  %call46 = tail call i32 @sp_read_unsigned_bin(ptr noundef nonnull %point, ptr noundef nonnull %add.ptr, i32 noundef %shr) #19
  %cmp48 = icmp eq i32 %call46, 0
  br i1 %cmp48, label %if.end55, label %if.then65

if.end55:                                         ; preds = %if.end47
  %idx.ext = zext nneg i32 %shr to i64
  %add.ptr53 = getelementptr inbounds nuw i8, ptr %add.ptr, i64 %idx.ext
  %call54 = tail call i32 @sp_read_unsigned_bin(ptr noundef nonnull %y, ptr noundef nonnull %add.ptr53, i32 noundef %shr) #19
  %cmp56 = icmp eq i32 %call54, 0
  br i1 %cmp56, label %if.end62, label %if.then65

if.end62:                                         ; preds = %if.end55
  %call61 = tail call i32 @sp_set(ptr noundef nonnull %z, i64 noundef 1) #19
  %cmp63.not = icmp eq i32 %call61, 0
  br i1 %cmp63.not, label %return, label %if.then65

if.then65:                                        ; preds = %do.end, %if.end47, %if.end55, %if.end62
  %err.442 = phi i32 [ %call61, %if.end62 ], [ %call54, %if.end55 ], [ %call46, %if.end47 ], [ %err.1, %do.end ]
  tail call void @sp_clear(ptr noundef nonnull %point) #19
  tail call void @sp_clear(ptr noundef nonnull %y) #19
  tail call void @sp_clear(ptr noundef nonnull %z) #19
  br label %return

return:                                           ; preds = %if.end62, %if.then65, %if.end8, %entry, %lor.lhs.false4
  %retval.0 = phi i32 [ -170, %lor.lhs.false4 ], [ -170, %entry ], [ -125, %if.end8 ], [ %err.442, %if.then65 ], [ 0, %if.end62 ]
  ret i32 %retval.0
}